Certificate:
    Data:
        Version: 3 (0x2)
        Serial Number: 1 (0x1)
    Signature Algorithm: sha256WithRSAEncryption
        Issuer: C=US, ST=Unset, L=Unset, O=Unset, CN=www.example.com
        Validity
            Not Before: Apr 23 02:22:52 2015 GMT
            Not After : Apr 20 02:22:52 2025 GMT
        Subject: C=US, ST=Unset, O=Unset, CN=www.example.com
        Subject Public Key Info:
            Public Key Algorithm: rsaEncryption
                Public-Key: (2048 bit)
                Modulus:
                    00:ca:28:a9:f0:1e:e9:07:df:98:75:d0:b5:c6:52:
                    b9:0f:99:36:1f:b5:44:1b:0f:6a:24:50:e7:f6:94:
                    9f:0f:f0:46:4c:e2:33:1d:46:3c:db:46:b7:0b:2c:
                    c8:33:5b:04:b9:70:64:1e:a6:88:63:47:14:f9:db:
                    80:5d:00:17:df:e3:b2:93:9d:07:61:e0:47:e7:7d:
                    de:09:e0:0f:ac:6d:3e:21:81:d5:2a:fc:da:66:79:
                    bb:35:e9:fa:b0:33:e6:c4:4d:61:13:f8:2a:cf:24:
                    79:4d:23:0a:74:e2:9b:de:7e:87:13:7f:3e:d5:b3:
                    dc:5e:a0:7c:bf:4c:e2:11:fa:31:d5:70:f8:af:d7:
                    d9:86:c9:29:a1:06:44:87:f9:18:0f:28:9e:8a:49:
                    fb:78:07:d1:a8:6a:3c:24:27:a2:0d:93:da:a7:7a:
                    7f:9c:ff:d1:0b:06:af:18:7b:16:fa:52:53:3f:98:
                    67:39:30:47:a0:fd:f2:40:29:63:ad:59:03:e2:90:
                    95:e7:fd:47:08:a0:d0:7b:59:0f:22:2f:76:45:61:
                    f1:5d:50:e2:57:aa:88:e7:88:4c:ca:07:fd:36:fb:
                    d5:8f:f0:e8:0b:0e:0f:18:5e:2b:b9:cc:b2:0e:74:
                    79:bd:c1:4d:b5:17:86:2d:2c:cc:76:36:fe:a7:fa:
                    fd:8b
                Exponent: 65537 (0x10001)
        X509v3 extensions:
            X509v3 Basic Constraints: 
                CA:FALSE
            X509v3 Subject Key Identifier: 
                FC:E8:BE:AC:60:0F:11:30:F7:79:86:F1:B6:11:69:F8:F1:B1:C3:00
            X509v3 Authority Key Identifier: 
                keyid:E6:8D:5F:D3:7D:37:A7:39:FE:E3:F8:80:E7:71:85:73:40:2A:AF:7A

    Signature Algorithm: sha256WithRSAEncryption
         8c:06:65:5f:07:ce:34:ff:fa:9a:63:68:d7:2d:c1:24:21:59:
         fd:e5:c5:15:15:4e:91:92:d5:fe:9c:a6:b1:fd:5d:dc:59:e7:
         fe:b6:f1:8e:5a:75:fd:f4:d2:7f:13:a7:05:8e:02:48:27:db:
         bf:9e:f1:14:01:29:ec:ef:31:d7:96:b1:08:b0:cb:8b:73:cc:
         ae:0f:26:eb:06:e6:30:8a:89:52:61:3d:77:77:d0:cb:d6:2f:
         d5:55:7e:7d:1d:fe:65:c7:bb:13:6b:4b:91:ff:55:99:42:66:
         c0:0f:d6:cb:01:76:c1:eb:f2:8c:62:80:72:07:be:fe:fc:11:
         1e:ec:99:97:19:2d:8e:a9:8a:20:f4:52:19:40:8e:f7:ed:ed:
         a6:d5:02:16:00:ba:bb:43:43:19:19:8f:58:e2:60:23:10:e0:
         38:c1:d5:6b:5e:29:15:06:83:35:04:55:1d:8f:ff:ff:0a:34:
         e0:7e:6a:79:37:f2:11:3e:f7:7f:2b:29:85:09:e1:8d:b0:fc:
         58:c4:ae:f6:21:eb:e7:21:f6:79:6e:16:44:83:e4:32:db:4c:
         08:d0:0e:41:a2:b4:9b:2d:6c:00:6a:67:5c:df:30:1f:2a:b1:
         06:d6:0e:a8:eb:de:48:2a:eb:79:2e:1f:8c:d7:d1:65:cd:3b:
         cb:c9:66:1d
-----BEGIN CERTIFICATE-----
MIIDZjCCAk6gAwIBAgIBATANBgkqhkiG9w0BAQsFADBXMQswCQYDVQQGEwJVUzEO
MAwGA1UECAwFVW5zZXQxDjAMBgNVBAcMBVVuc2V0MQ4wDAYDVQQKDAVVbnNldDEY
MBYGA1UEAwwPd3d3LmV4YW1wbGUuY29tMB4XDTE1MDQyMzAyMjI1MloXDTI1MDQy
MDAyMjI1MlowRzELMAkGA1UEBhMCVVMxDjAMBgNVBAgMBVVuc2V0MQ4wDAYDVQQK
DAVVbnNldDEYMBYGA1UEAwwPd3d3LmV4YW1wbGUuY29tMIIBIjANBgkqhkiG9w0B
AQEFAAOCAQ8AMIIBCgKCAQEAyiip8B7pB9+YddC1xlK5D5k2H7VEGw9qJFDn9pSf
D/BGTOIzHUY820a3CyzIM1sEuXBkHqaIY0cU+duAXQAX3+Oyk50HYeBH533eCeAP
rG0+IYHVKvzaZnm7Nen6sDPmxE1hE/gqzyR5TSMKdOKb3n6HE38+1bPcXqB8v0zi
Efox1XD4r9fZhskpoQZEh/kYDyieikn7eAfRqGo8JCeiDZPap3p/nP/RCwavGHsW
+lJTP5hnOTBHoP3yQCljrVkD4pCV5/1HCKDQe1kPIi92RWHxXVDiV6qI54hMygf9
NvvVj/DoCw4PGF4rucyyDnR5vcFNtReGLSzMdjb+p/r9iwIDAQABo00wSzAJBgNV
HRMEAjAAMB0GA1UdDgQWBBT86L6sYA8RMPd5hvG2EWn48bHDADAfBgNVHSMEGDAW
gBTmjV/TfTenOf7j+IDncYVzQCqvejANBgkqhkiG9w0BAQsFAAOCAQEAjAZlXwfO
NP/6mmNo1y3BJCFZ/eXFFRVOkZLV/pymsf1d3Fnn/rbxjlp1/fTSfxOnBY4CSCfb
v57xFAEp7O8x15axCLDLi3PMrg8m6wbmMIqJUmE9d3fQy9Yv1VV+fR3+Zce7E2tL
kf9VmUJmwA/WywF2wevyjGKAcge+/vwRHuyZlxktjqmKIPRSGUCO9+3tptUCFgC6
u0NDGRmPWOJgIxDgOMHVa14pFQaDNQRVHY///wo04H5qeTfyET73fysphQnhjbD8
WMSu9iHr5yH2eW4WRIPkMttMCNAOQaK0my1sAGpnXN8wHyqxBtYOqOveSCrreS4f
jNfRZc07y8lmHQ==
-----END CERTIFICATE-----
